target datalayout = "e-m:e-p270:32:32-p271:32:32-p272:64:64-i64:64-i128:128-f80:128-n8:16:32:64-S128"
target triple = "x86_64-pc-linux-gnu"

%struct.aiString = type { i32, [1024 x i8] }
%class.aiVector3t = type { float, float, float }
%struct.aiNodeAnim = type { %struct.aiString, i32, ptr, i32, ptr, i32, ptr, i32, i32 }
%struct.aiVectorKey = type { double, %class.aiVector3t, i32 }
%struct.aiQuatKey = type <{ double, %class.aiQuaterniont, i32, [4 x i8] }>
%class.aiQuaterniont = type { float, float, float, float }

; Function Attrs: mustprogress nounwind uwtable
define linkonce_odr hidden void @_ZN13aiQuaterniontIfEC2Ev(ptr noundef nonnull align 4 dereferenceable(16) %0) unnamed_addr #4 comdat align 2 {
  %2 = alloca ptr, align 8
  store ptr %0, ptr %2, align 8
  %3 = load ptr, ptr %2, align 8
  %4 = getelementptr inbounds nuw %class.aiQuaterniont, ptr %3, i32 0, i32 0
  store float 1.000000e+00, ptr %4, align 4
  %5 = getelementptr inbounds nuw %class.aiQuaterniont, ptr %3, i32 0, i32 1
  store float 0.000000e+00, ptr %5, align 4
  %6 = getelementptr inbounds nuw %class.aiQuaterniont, ptr %3, i32 0, i32 2
  store float 0.000000e+00, ptr %6, align 4
  %7 = getelementptr inbounds nuw %class.aiQuaterniont, ptr %3, i32 0, i32 3
  store float 0.000000e+00, ptr %7, align 4
  ret void
}

; Function Attrs: mustprogress nounwind uwtable
define linkonce_odr hidden void @_ZN10aiVector3tIfEC2Ev(ptr noundef nonnull align 4 dereferenceable(12) %0) unnamed_addr #4 comdat align 2 {
  %2 = alloca ptr, align 8
  store ptr %0, ptr %2, align 8
  %3 = load ptr, ptr %2, align 8
  %4 = getelementptr inbounds nuw %class.aiVector3t, ptr %3, i32 0, i32 0
  store float 0.000000e+00, ptr %4, align 4
  %5 = getelementptr inbounds nuw %class.aiVector3t, ptr %3, i32 0, i32 1
  store float 0.000000e+00, ptr %5, align 4
  %6 = getelementptr inbounds nuw %class.aiVector3t, ptr %3, i32 0, i32 2
  store float 0.000000e+00, ptr %6, align 4
  ret void
}

; Function Attrs: mustprogress nounwind uwtable
define linkonce_odr hidden void @_ZN9aiQuatKeyC2Ev(ptr noundef nonnull align 8 dereferenceable(28) %0) unnamed_addr #4 comdat align 2 {
  %2 = alloca ptr, align 8
  store ptr %0, ptr %2, align 8
  %3 = load ptr, ptr %2, align 8
  %4 = getelementptr inbounds nuw %struct.aiQuatKey, ptr %3, i32 0, i32 0
  store double 0.000000e+00, ptr %4, align 8
  %5 = getelementptr inbounds nuw %struct.aiQuatKey, ptr %3, i32 0, i32 1
  call void @_ZN13aiQuaterniontIfEC2Ev(ptr noundef nonnull align 4 dereferenceable(16) %5) #17
  %6 = getelementptr inbounds nuw %struct.aiQuatKey, ptr %3, i32 0, i32 2
  store i32 1, ptr %6, align 8
  ret void
}

; Function Attrs: mustprogress nounwind uwtable
define linkonce_odr hidden void @_ZN11aiVectorKeyC2Ev(ptr noundef nonnull align 8 dereferenceable(24) %0) unnamed_addr #4 comdat align 2 {
  %2 = alloca ptr, align 8
  store ptr %0, ptr %2, align 8
  %3 = load ptr, ptr %2, align 8
  %4 = getelementptr inbounds nuw %struct.aiVectorKey, ptr %3, i32 0, i32 0
  store double 0.000000e+00, ptr %4, align 8
  %5 = getelementptr inbounds nuw %struct.aiVectorKey, ptr %3, i32 0, i32 1
  call void @_ZN10aiVector3tIfEC2Ev(ptr noundef nonnull align 4 dereferenceable(12) %5) #17
  %6 = getelementptr inbounds nuw %struct.aiVectorKey, ptr %3, i32 0, i32 2
  store i32 1, ptr %6, align 4
  ret void
}

; Function Attrs: mustprogress nounwind uwtable
define linkonce_odr hidden noundef nonnull align 4 dereferenceable(1028) ptr @_ZN8aiStringaSERKS_(ptr noundef nonnull align 4 dereferenceable(1028) %0, ptr noundef nonnull align 4 dereferenceable(1028) %1) #4 comdat align 2 {
  %3 = alloca ptr, align 8
  %4 = alloca ptr, align 8
  %5 = alloca ptr, align 8
  store ptr %0, ptr %4, align 8
  store ptr %1, ptr %5, align 8
  %6 = load ptr, ptr %4, align 8
  %7 = load ptr, ptr %5, align 8
  %8 = icmp eq ptr %6, %7
  br i1 %8, label %9, label %10

9:                                                ; preds = %2
  store ptr %6, ptr %3, align 8
  br label %35

10:                                               ; preds = %2
  %11 = load ptr, ptr %5, align 8
  %12 = getelementptr inbounds nuw %struct.aiString, ptr %11, i32 0, i32 0
  %13 = load i32, ptr %12, align 4
  %14 = getelementptr inbounds nuw %struct.aiString, ptr %6, i32 0, i32 0
  store i32 %13, ptr %14, align 4
  %15 = getelementptr inbounds nuw %struct.aiString, ptr %6, i32 0, i32 0
  %16 = load i32, ptr %15, align 4
  %17 = zext i32 %16 to i64
  %18 = icmp ugt i64 %17, 1023
  br i1 %18, label %19, label %21

19:                                               ; preds = %10
  %20 = getelementptr inbounds nuw %struct.aiString, ptr %6, i32 0, i32 0
  store i32 1023, ptr %20, align 4
  br label %21

21:                                               ; preds = %19, %10
  %22 = getelementptr inbounds nuw %struct.aiString, ptr %6, i32 0, i32 1
  %23 = getelementptr inbounds [1024 x i8], ptr %22, i64 0, i64 0
  %24 = load ptr, ptr %5, align 8
  %25 = getelementptr inbounds nuw %struct.aiString, ptr %24, i32 0, i32 1
  %26 = getelementptr inbounds [1024 x i8], ptr %25, i64 0, i64 0
  %27 = getelementptr inbounds nuw %struct.aiString, ptr %6, i32 0, i32 0
  %28 = load i32, ptr %27, align 4
  %29 = zext i32 %28 to i64
  call void @llvm.memcpy.p0.p0.i64(ptr align 4 %23, ptr align 4 %26, i64 %29, i1 false)
  %30 = getelementptr inbounds nuw %struct.aiString, ptr %6, i32 0, i32 1
  %31 = getelementptr inbounds nuw %struct.aiString, ptr %6, i32 0, i32 0
  %32 = load i32, ptr %31, align 4
  %33 = zext i32 %32 to i64
  %34 = getelementptr inbounds nuw [1024 x i8], ptr %30, i64 0, i64 %33
  store i8 0, ptr %34, align 1
  store ptr %6, ptr %3, align 8
  br label %35

35:                                               ; preds = %21, %9
  %36 = load ptr, ptr %3, align 8
  ret ptr %36
}

; Function Attrs: mustprogress nounwind uwtable
define linkonce_odr hidden void @_ZN8aiStringC2Ev(ptr noundef nonnull align 4 dereferenceable(1028) %0) unnamed_addr #4 comdat align 2 {
  %2 = alloca ptr, align 8
  store ptr %0, ptr %2, align 8
  %3 = load ptr, ptr %2, align 8
  %4 = getelementptr inbounds nuw %struct.aiString, ptr %3, i32 0, i32 0
  store i32 0, ptr %4, align 4
  %5 = getelementptr inbounds nuw %struct.aiString, ptr %3, i32 0, i32 1
  call void @llvm.memset.p0.i64(ptr align 4 %5, i8 0, i64 1024, i1 false)
  ret void
}

; Function Attrs: inlinehint mustprogress uwtable
define linkonce_odr hidden void @_ZN6Assimp12GetArrayCopyI9aiQuatKeyEEvRPT_j(ptr noundef nonnull align 8 dereferenceable(8) %0, i32 noundef %1) #3 comdat {
  %3 = alloca ptr, align 8
  %4 = alloca i32, align 4
  %5 = alloca ptr, align 8
  store ptr %0, ptr %3, align 8
  store i32 %1, ptr %4, align 4
  %6 = load ptr, ptr %3, align 8
  %7 = load ptr, ptr %6, align 8
  %8 = icmp ne ptr %7, null
  br i1 %8, label %10, label %9

9:                                                ; preds = %2
  br label %35

10:                                               ; preds = %2
  call void @llvm.lifetime.start.p0(i64 8, ptr %5) #17
  %11 = load ptr, ptr %3, align 8
  %12 = load ptr, ptr %11, align 8
  store ptr %12, ptr %5, align 8
  %13 = load i32, ptr %4, align 4
  %14 = zext i32 %13 to i64
  %15 = call { i64, i1 } @llvm.umul.with.overflow.i64(i64 %14, i64 32)
  %16 = extractvalue { i64, i1 } %15, 1
  %17 = extractvalue { i64, i1 } %15, 0
  %18 = select i1 %16, i64 -1, i64 %17
  %19 = call noalias noundef nonnull ptr @_Znam(i64 noundef %18) #19
  %20 = icmp eq i64 %14, 0
  br i1 %20, label %27, label %21

21:                                               ; preds = %10
  %22 = getelementptr inbounds %struct.aiQuatKey, ptr %19, i64 %14
  br label %23

23:                                               ; preds = %23, %21
  %24 = phi ptr [ %19, %21 ], [ %25, %23 ]
  call void @_ZN9aiQuatKeyC2Ev(ptr noundef nonnull align 8 dereferenceable(28) %24) #17
  %25 = getelementptr inbounds %struct.aiQuatKey, ptr %24, i64 1
  %26 = icmp eq ptr %25, %22
  br i1 %26, label %27, label %23

27:                                               ; preds = %10, %23
  %28 = load ptr, ptr %3, align 8
  store ptr %19, ptr %28, align 8
  %29 = load ptr, ptr %3, align 8
  %30 = load ptr, ptr %29, align 8
  %31 = load ptr, ptr %5, align 8
  %32 = load i32, ptr %4, align 4
  %33 = zext i32 %32 to i64
  %34 = mul i64 32, %33
  call void @llvm.memcpy.p0.p0.i64(ptr align 8 %30, ptr align 8 %31, i64 %34, i1 false)
  call void @llvm.lifetime.end.p0(i64 8, ptr %5) #17
  br label %35

35:                                               ; preds = %27, %9
  ret void
}

; Function Attrs: inlinehint mustprogress uwtable
define linkonce_odr hidden void @_ZN6Assimp12GetArrayCopyI11aiVectorKeyEEvRPT_j(ptr noundef nonnull align 8 dereferenceable(8) %0, i32 noundef %1) #3 comdat {
  %3 = alloca ptr, align 8
  %4 = alloca i32, align 4
  %5 = alloca ptr, align 8
  store ptr %0, ptr %3, align 8
  store i32 %1, ptr %4, align 4
  %6 = load ptr, ptr %3, align 8
  %7 = load ptr, ptr %6, align 8
  %8 = icmp ne ptr %7, null
  br i1 %8, label %10, label %9

9:                                                ; preds = %2
  br label %35

10:                                               ; preds = %2
  call void @llvm.lifetime.start.p0(i64 8, ptr %5) #17
  %11 = load ptr, ptr %3, align 8
  %12 = load ptr, ptr %11, align 8
  store ptr %12, ptr %5, align 8
  %13 = load i32, ptr %4, align 4
  %14 = zext i32 %13 to i64
  %15 = call { i64, i1 } @llvm.umul.with.overflow.i64(i64 %14, i64 24)
  %16 = extractvalue { i64, i1 } %15, 1
  %17 = extractvalue { i64, i1 } %15, 0
  %18 = select i1 %16, i64 -1, i64 %17
  %19 = call noalias noundef nonnull ptr @_Znam(i64 noundef %18) #19
  %20 = icmp eq i64 %14, 0
  br i1 %20, label %27, label %21

21:                                               ; preds = %10
  %22 = getelementptr inbounds %struct.aiVectorKey, ptr %19, i64 %14
  br label %23

23:                                               ; preds = %23, %21
  %24 = phi ptr [ %19, %21 ], [ %25, %23 ]
  call void @_ZN11aiVectorKeyC2Ev(ptr noundef nonnull align 8 dereferenceable(24) %24) #17
  %25 = getelementptr inbounds %struct.aiVectorKey, ptr %24, i64 1
  %26 = icmp eq ptr %25, %22
  br i1 %26, label %27, label %23

27:                                               ; preds = %10, %23
  %28 = load ptr, ptr %3, align 8
  store ptr %19, ptr %28, align 8
  %29 = load ptr, ptr %3, align 8
  %30 = load ptr, ptr %29, align 8
  %31 = load ptr, ptr %5, align 8
  %32 = load i32, ptr %4, align 4
  %33 = zext i32 %32 to i64
  %34 = mul i64 24, %33
  call void @llvm.memcpy.p0.p0.i64(ptr align 8 %30, ptr align 8 %31, i64 %34, i1 false)
  call void @llvm.lifetime.end.p0(i64 8, ptr %5) #17
  br label %35

35:                                               ; preds = %27, %9
  ret void
}

; Function Attrs: inlinehint mustprogress nounwind uwtable
define linkonce_odr hidden noundef nonnull align 8 dereferenceable(1080) ptr @_ZN10aiNodeAnimaSERKS_(ptr noundef nonnull align 8 dereferenceable(1080) %0, ptr noundef nonnull align 8 dereferenceable(1080) %1) #2 comdat align 2 {
  %3 = alloca ptr, align 8
  %4 = alloca ptr, align 8
  store ptr %0, ptr %3, align 8
  store ptr %1, ptr %4, align 8
  %5 = load ptr, ptr %3, align 8
  %6 = getelementptr inbounds nuw %struct.aiNodeAnim, ptr %5, i32 0, i32 0
  %7 = load ptr, ptr %4, align 8
  %8 = getelementptr inbounds nuw %struct.aiNodeAnim, ptr %7, i32 0, i32 0
  %9 = call noundef nonnull align 4 dereferenceable(1028) ptr @_ZN8aiStringaSERKS_(ptr noundef nonnull align 4 dereferenceable(1028) %6, ptr noundef nonnull align 4 dereferenceable(1028) %8)
  %10 = getelementptr inbounds nuw %struct.aiNodeAnim, ptr %5, i32 0, i32 1
  %11 = load ptr, ptr %4, align 8
  %12 = getelementptr inbounds nuw %struct.aiNodeAnim, ptr %11, i32 0, i32 1
  call void @llvm.memcpy.p0.p0.i64(ptr align 4 %10, ptr align 4 %12, i64 52, i1 false)
  ret ptr %5
}

; Function Attrs: mustprogress nounwind uwtable
define linkonce_odr hidden void @_ZN10aiNodeAnimC2Ev(ptr noundef nonnull align 8 dereferenceable(1080) %0) unnamed_addr #4 comdat align 2 {
  %2 = alloca ptr, align 8
  store ptr %0, ptr %2, align 8
  %3 = load ptr, ptr %2, align 8
  %4 = getelementptr inbounds nuw %struct.aiNodeAnim, ptr %3, i32 0, i32 0
  call void @_ZN8aiStringC2Ev(ptr noundef nonnull align 4 dereferenceable(1028) %4) #17
  %5 = getelementptr inbounds nuw %struct.aiNodeAnim, ptr %3, i32 0, i32 1
  store i32 0, ptr %5, align 4
  %6 = getelementptr inbounds nuw %struct.aiNodeAnim, ptr %3, i32 0, i32 2
  store ptr null, ptr %6, align 8
  %7 = getelementptr inbounds nuw %struct.aiNodeAnim, ptr %3, i32 0, i32 3
  store i32 0, ptr %7, align 8
  %8 = getelementptr inbounds nuw %struct.aiNodeAnim, ptr %3, i32 0, i32 4
  store ptr null, ptr %8, align 8
  %9 = getelementptr inbounds nuw %struct.aiNodeAnim, ptr %3, i32 0, i32 5
  store i32 0, ptr %9, align 8
  %10 = getelementptr inbounds nuw %struct.aiNodeAnim, ptr %3, i32 0, i32 6
  store ptr null, ptr %10, align 8
  %11 = getelementptr inbounds nuw %struct.aiNodeAnim, ptr %3, i32 0, i32 7
  store i32 0, ptr %11, align 8
  %12 = getelementptr inbounds nuw %struct.aiNodeAnim, ptr %3, i32 0, i32 8
  store i32 0, ptr %12, align 4
  ret void
}

; Function Attrs: mustprogress uwtable
define void @_ZN6Assimp13SceneCombiner4CopyEPP10aiNodeAnimPKS1_(ptr noundef %0, ptr noundef %1) #0 align 2 {
  %3 = alloca ptr, align 8
  %4 = alloca ptr, align 8
  %5 = alloca ptr, align 8
  store ptr %0, ptr %3, align 8
  store ptr %1, ptr %4, align 8
  %6 = load ptr, ptr %3, align 8
  %7 = icmp eq ptr null, %6
  br i1 %7, label %11, label %8

8:                                                ; preds = %2
  %9 = load ptr, ptr %4, align 8
  %10 = icmp eq ptr null, %9
  br i1 %10, label %11, label %12

11:                                               ; preds = %8, %2
  br label %33

12:                                               ; preds = %8
  call void @llvm.lifetime.start.p0(i64 8, ptr %5) #17
  %13 = call noalias noundef nonnull ptr @_Znwm(i64 noundef 1080) #19
  call void @_ZN10aiNodeAnimC2Ev(ptr noundef nonnull align 8 dereferenceable(1080) %13) #17
  %14 = load ptr, ptr %3, align 8
  store ptr %13, ptr %14, align 8
  store ptr %13, ptr %5, align 8
  %15 = load ptr, ptr %4, align 8
  %16 = load ptr, ptr %5, align 8
  %17 = call noundef nonnull align 8 dereferenceable(1080) ptr @_ZN10aiNodeAnimaSERKS_(ptr noundef nonnull align 8 dereferenceable(1080) %16, ptr noundef nonnull align 8 dereferenceable(1080) %15)
  %18 = load ptr, ptr %5, align 8
  %19 = getelementptr inbounds nuw %struct.aiNodeAnim, ptr %18, i32 0, i32 2
  %20 = load ptr, ptr %5, align 8
  %21 = getelementptr inbounds nuw %struct.aiNodeAnim, ptr %20, i32 0, i32 1
  %22 = load i32, ptr %21, align 4
  call void @_ZN6Assimp12GetArrayCopyI11aiVectorKeyEEvRPT_j(ptr noundef nonnull align 8 dereferenceable(8) %19, i32 noundef %22)
  %23 = load ptr, ptr %5, align 8
  %24 = getelementptr inbounds nuw %struct.aiNodeAnim, ptr %23, i32 0, i32 6
  %25 = load ptr, ptr %5, align 8
  %26 = getelementptr inbounds nuw %struct.aiNodeAnim, ptr %25, i32 0, i32 5
  %27 = load i32, ptr %26, align 8
  call void @_ZN6Assimp12GetArrayCopyI11aiVectorKeyEEvRPT_j(ptr noundef nonnull align 8 dereferenceable(8) %24, i32 noundef %27)
  %28 = load ptr, ptr %5, align 8
  %29 = getelementptr inbounds nuw %struct.aiNodeAnim, ptr %28, i32 0, i32 4
  %30 = load ptr, ptr %5, align 8
  %31 = getelementptr inbounds nuw %struct.aiNodeAnim, ptr %30, i32 0, i32 3
  %32 = load i32, ptr %31, align 8
  call void @_ZN6Assimp12GetArrayCopyI9aiQuatKeyEEvRPT_j(ptr noundef nonnull align 8 dereferenceable(8) %29, i32 noundef %32)
  call void @llvm.lifetime.end.p0(i64 8, ptr %5) #17
  br label %33

33:                                               ; preds = %12, %11
  ret void
}