; Function Attrs: mustprogress uwtable
define void @_ZN6Assimp13SceneCombiner4CopyEPP10aiNodeAnimPKS1_(ptr noundef writeonly captures(address_is_null) %0, ptr noundef readonly captures(address) %1) local_unnamed_addr #0 align 2 {
  %3 = icmp eq ptr %0, null
  %4 = icmp eq ptr %1, null
  %or.cond = or i1 %3, %4
  br i1 %or.cond, label %_ZN6Assimp12GetArrayCopyI9aiQuatKeyEEvRPT_j.exit, label %5

5:                                                ; preds = %2
  %6 = tail call noalias noundef nonnull dereferenceable(1080) ptr @_Znwm(i64 noundef 1080) #22
  %7 = getelementptr inbounds nuw i8, ptr %6, i64 1048
  %8 = getelementptr inbounds nuw i8, ptr %6, i64 1056
  %9 = getelementptr inbounds nuw i8, ptr %6, i64 1064
  tail call void @llvm.memset.p0.i64(ptr noundef nonnull align 8 dereferenceable(1080) %6, i8 0, i64 1032, i1 false)
  store ptr %6, ptr %0, align 8
  %10 = icmp eq ptr %6, %1
  br i1 %10, label %_ZN10aiNodeAnimaSERKS_.exit, label %11

11:                                               ; preds = %5
  %12 = load i32, ptr %1, align 4
  %spec.select.i.i = tail call i32 @llvm.umin.i32(i32 %12, i32 1023)
  store i32 %spec.select.i.i, ptr %6, align 4
  %13 = getelementptr inbounds nuw i8, ptr %6, i64 4
  %14 = getelementptr inbounds nuw i8, ptr %1, i64 4
  %15 = zext nneg i32 %spec.select.i.i to i64
  tail call void @llvm.memcpy.p0.p0.i64(ptr nonnull align 4 %13, ptr nonnull align 4 %14, i64 %15, i1 false)
  %16 = getelementptr inbounds nuw [1024 x i8], ptr %13, i64 0, i64 %15
  store i8 0, ptr %16, align 1
  br label %_ZN10aiNodeAnimaSERKS_.exit

_ZN10aiNodeAnimaSERKS_.exit:                      ; preds = %5, %11
  %17 = getelementptr inbounds nuw i8, ptr %6, i64 1028
  %18 = getelementptr inbounds nuw i8, ptr %1, i64 1028
  tail call void @llvm.memcpy.p0.p0.i64(ptr noundef nonnull align 4 dereferenceable(52) %17, ptr noundef nonnull align 4 dereferenceable(52) %18, i64 52, i1 false)
  %19 = getelementptr inbounds nuw i8, ptr %6, i64 1032
  %20 = load ptr, ptr %19, align 8
  %.not.i = icmp eq ptr %20, null
  br i1 %.not.i, label %_ZN6Assimp12GetArrayCopyI11aiVectorKeyEEvRPT_j.exit, label %21

21:                                               ; preds = %_ZN10aiNodeAnimaSERKS_.exit
  %22 = load i32, ptr %17, align 4
  %23 = zext i32 %22 to i64
  %24 = mul nuw nsw i64 %23, 24
  %25 = tail call noalias noundef nonnull ptr @_Znam(i64 noundef %24) #22
  %26 = icmp eq i32 %22, 0
  br i1 %26, label %.loopexit.i, label %27

27:                                               ; preds = %21
  %28 = getelementptr inbounds nuw %struct.aiVectorKey, ptr %25, i64 %23
  br label %29

29:                                               ; preds = %29, %27
  %30 = phi ptr [ %25, %27 ], [ %32, %29 ]
  %31 = getelementptr inbounds nuw i8, ptr %30, i64 20
  tail call void @llvm.memset.p0.i64(ptr noundef nonnull align 8 dereferenceable(24) %30, i8 0, i64 20, i1 false)
  store i32 1, ptr %31, align 4
  %32 = getelementptr inbounds nuw i8, ptr %30, i64 24
  %33 = icmp eq ptr %32, %28
  br i1 %33, label %.loopexit.i, label %29

.loopexit.i:                                      ; preds = %29, %21
  store ptr %25, ptr %19, align 8
  tail call void @llvm.memcpy.p0.p0.i64(ptr nonnull align 8 %25, ptr nonnull align 8 %20, i64 %24, i1 false)
  br label %_ZN6Assimp12GetArrayCopyI11aiVectorKeyEEvRPT_j.exit

_ZN6Assimp12GetArrayCopyI11aiVectorKeyEEvRPT_j.exit: ; preds = %_ZN10aiNodeAnimaSERKS_.exit, %.loopexit.i
  %34 = load ptr, ptr %9, align 8
  %.not.i13 = icmp eq ptr %34, null
  br i1 %.not.i13, label %_ZN6Assimp12GetArrayCopyI11aiVectorKeyEEvRPT_j.exit15, label %35

35:                                               ; preds = %_ZN6Assimp12GetArrayCopyI11aiVectorKeyEEvRPT_j.exit
  %36 = load i32, ptr %8, align 8
  %37 = zext i32 %36 to i64
  %38 = mul nuw nsw i64 %37, 24
  %39 = tail call noalias noundef nonnull ptr @_Znam(i64 noundef %38) #22
  %40 = icmp eq i32 %36, 0
  br i1 %40, label %.loopexit.i14, label %41

41:                                               ; preds = %35
  %42 = getelementptr inbounds nuw %struct.aiVectorKey, ptr %39, i64 %37
  br label %43

43:                                               ; preds = %43, %41
  %44 = phi ptr [ %39, %41 ], [ %46, %43 ]
  %45 = getelementptr inbounds nuw i8, ptr %44, i64 20
  tail call void @llvm.memset.p0.i64(ptr noundef nonnull align 8 dereferenceable(24) %44, i8 0, i64 20, i1 false)
  store i32 1, ptr %45, align 4
  %46 = getelementptr inbounds nuw i8, ptr %44, i64 24
  %47 = icmp eq ptr %46, %42
  br i1 %47, label %.loopexit.i14, label %43

.loopexit.i14:                                    ; preds = %43, %35
  store ptr %39, ptr %9, align 8
  tail call void @llvm.memcpy.p0.p0.i64(ptr nonnull align 8 %39, ptr nonnull align 8 %34, i64 %38, i1 false)
  br label %_ZN6Assimp12GetArrayCopyI11aiVectorKeyEEvRPT_j.exit15

_ZN6Assimp12GetArrayCopyI11aiVectorKeyEEvRPT_j.exit15: ; preds = %_ZN6Assimp12GetArrayCopyI11aiVectorKeyEEvRPT_j.exit, %.loopexit.i14
  %48 = load ptr, ptr %7, align 8
  %.not.i16 = icmp eq ptr %48, null
  br i1 %.not.i16, label %_ZN6Assimp12GetArrayCopyI9aiQuatKeyEEvRPT_j.exit, label %49

49:                                               ; preds = %_ZN6Assimp12GetArrayCopyI11aiVectorKeyEEvRPT_j.exit15
  %50 = getelementptr inbounds nuw i8, ptr %6, i64 1040
  %51 = load i32, ptr %50, align 8
  %52 = zext i32 %51 to i64
  %53 = shl nuw nsw i64 %52, 5
  %54 = tail call noalias noundef nonnull ptr @_Znam(i64 noundef %53) #22
  %55 = icmp eq i32 %51, 0
  br i1 %55, label %.loopexit.i17, label %56

56:                                               ; preds = %49
  %57 = getelementptr inbounds nuw %struct.aiQuatKey, ptr %54, i64 %52
  br label %58

58:                                               ; preds = %58, %56
  %59 = phi ptr [ %54, %56 ], [ %65, %58 ]
  store double 0.000000e+00, ptr %59, align 8
  %60 = getelementptr inbounds nuw i8, ptr %59, i64 8
  store float 1.000000e+00, ptr %60, align 4
  %61 = getelementptr inbounds nuw i8, ptr %59, i64 12
  store float 0.000000e+00, ptr %61, align 4
  %62 = getelementptr inbounds nuw i8, ptr %59, i64 16
  store float 0.000000e+00, ptr %62, align 4
  %63 = getelementptr inbounds nuw i8, ptr %59, i64 20
  store float 0.000000e+00, ptr %63, align 4
  %64 = getelementptr inbounds nuw i8, ptr %59, i64 24
  store i32 1, ptr %64, align 8
  %65 = getelementptr inbounds nuw i8, ptr %59, i64 32
  %66 = icmp eq ptr %65, %57
  br i1 %66, label %.loopexit.i17, label %58

.loopexit.i17:                                    ; preds = %58, %49
  store ptr %54, ptr %7, align 8
  tail call void @llvm.memcpy.p0.p0.i64(ptr nonnull align 8 %54, ptr nonnull align 8 %48, i64 %53, i1 false)
  br label %_ZN6Assimp12GetArrayCopyI9aiQuatKeyEEvRPT_j.exit

_ZN6Assimp12GetArrayCopyI9aiQuatKeyEEvRPT_j.exit: ; preds = %.loopexit.i17, %_ZN6Assimp12GetArrayCopyI11aiVectorKeyEEvRPT_j.exit15, %2
  ret void
}